target datalayout = "e-m:e-p270:32:32-p271:32:32-p272:64:64-i64:64-i128:128-f80:128-n8:16:32:64-S128"
target triple = "x86_64-pc-linux-gnu"

%struct._MAD = type { i8, i8, i8, i8, i16, i8, i8, i64, i16, i16, i32 }

@hf_opa_LinearForwardingTable = internal global i32 0, align 4
@hf_opa_LinearForwardingTable_Port = internal global i32 0, align 4
@ett_linearforwardingtable = internal global i32 0, align 4
@ett_linearforwardingtable_block = internal global i32 0, align 4
@.str.2329 = private unnamed_addr constant [6 x i8] c"%3u: \00", align 1
@.str.2338 = private unnamed_addr constant [33 x i8] c"Linear Forwarding Table Block %u\00", align 1

; Function Attrs: null_pointer_is_valid sspstrong uwtable
define internal i32 @parse_LinearForwardingTable(ptr noundef %0, ptr noundef %1, ptr noundef %2, ptr noundef %3) #0 {
  %5 = alloca i32, align 4
  %6 = alloca ptr, align 8
  %7 = alloca ptr, align 8
  %8 = alloca ptr, align 8
  %9 = alloca ptr, align 8
  %10 = alloca i32, align 4
  %11 = alloca ptr, align 8
  %12 = alloca ptr, align 8
  %13 = alloca ptr, align 8
  %14 = alloca ptr, align 8
  %15 = alloca i32, align 4
  %16 = alloca i32, align 4
  %17 = alloca i32, align 4
  %18 = alloca i32, align 4
  %19 = alloca i32, align 4
  store ptr %0, ptr %6, align 8
  store ptr %1, ptr %7, align 8
  store ptr %2, ptr %8, align 8
  store ptr %3, ptr %9, align 8
  call void @llvm.lifetime.start.p0(i64 4, ptr %10) #7
  %20 = load ptr, ptr %8, align 8
  %21 = load i32, ptr %20, align 4
  store i32 %21, ptr %10, align 4
  call void @llvm.lifetime.start.p0(i64 8, ptr %11) #7
  call void @llvm.lifetime.start.p0(i64 8, ptr %12) #7
  call void @llvm.lifetime.start.p0(i64 8, ptr %13) #7
  call void @llvm.lifetime.start.p0(i64 8, ptr %14) #7
  call void @llvm.lifetime.start.p0(i64 4, ptr %15) #7
  call void @llvm.lifetime.start.p0(i64 4, ptr %16) #7
  call void @llvm.lifetime.start.p0(i64 4, ptr %17) #7
  call void @llvm.lifetime.start.p0(i64 4, ptr %18) #7
  %22 = load ptr, ptr %6, align 8
  %23 = icmp ne ptr %22, null
  br i1 %23, label %24, label %36

24:                                               ; preds = %4
  %25 = load ptr, ptr %9, align 8
  %26 = getelementptr inbounds nuw %struct._MAD, ptr %25, i32 0, i32 3
  %27 = load i8, ptr %26, align 1
  %28 = zext i8 %27 to i32
  %29 = icmp eq i32 %28, 1
  br i1 %29, label %36, label %30

30:                                               ; preds = %24
  %31 = load ptr, ptr %9, align 8
  %32 = getelementptr inbounds nuw %struct._MAD, ptr %31, i32 0, i32 3
  %33 = load i8, ptr %32, align 1
  %34 = zext i8 %33 to i32
  %35 = icmp eq i32 %34, 18
  br i1 %35, label %36, label %39

36:                                               ; preds = %30, %24, %4
  %37 = load ptr, ptr %8, align 8
  %38 = load i32, ptr %37, align 4
  store i32 %38, ptr %5, align 4
  store i32 1, ptr %19, align 4
  br label %108

39:                                               ; preds = %30
  %40 = load ptr, ptr %9, align 8
  %41 = getelementptr inbounds nuw %struct._MAD, ptr %40, i32 0, i32 1
  %42 = load i8, ptr %41, align 1
  %43 = zext i8 %42 to i32
  %44 = icmp eq i32 %43, 3
  br i1 %44, label %45, label %51

45:                                               ; preds = %39
  store i32 1, ptr %18, align 4
  %46 = load ptr, ptr %7, align 8
  %47 = load i32, ptr %10, align 4
  %48 = sub i32 %47, 4
  %49 = call i32 @tvb_get_ntohl(ptr noundef %46, i32 noundef %48)
  %50 = and i32 %49, 262143
  store i32 %50, ptr %17, align 4
  br label %61

51:                                               ; preds = %39
  %52 = load ptr, ptr %9, align 8
  %53 = getelementptr inbounds nuw %struct._MAD, ptr %52, i32 0, i32 10
  %54 = load i32, ptr %53, align 4
  %55 = and i32 %54, -16777216
  %56 = lshr i32 %55, 24
  store i32 %56, ptr %18, align 4
  %57 = load ptr, ptr %9, align 8
  %58 = getelementptr inbounds nuw %struct._MAD, ptr %57, i32 0, i32 10
  %59 = load i32, ptr %58, align 4
  %60 = and i32 %59, 262143
  store i32 %60, ptr %17, align 4
  br label %61

61:                                               ; preds = %51, %45
  %62 = load ptr, ptr %6, align 8
  %63 = load i32, ptr @hf_opa_LinearForwardingTable, align 4
  %64 = load ptr, ptr %7, align 8
  %65 = load i32, ptr %10, align 4
  %66 = load i32, ptr %18, align 4
  %67 = mul i32 64, %66
  %68 = call ptr @proto_tree_add_item(ptr noundef %62, i32 noundef %63, ptr noundef %64, i32 noundef %65, i32 noundef %67, i32 noundef 0)
  store ptr %68, ptr %11, align 8
  %69 = load ptr, ptr %11, align 8
  %70 = load i32, ptr @ett_linearforwardingtable, align 4
  %71 = call ptr @proto_item_add_subtree(ptr noundef %69, i32 noundef %70)
  store ptr %71, ptr %12, align 8
  %72 = load i32, ptr %17, align 4
  store i32 %72, ptr %15, align 4
  br label %73

73:                                               ; preds = %103, %61
  %74 = load i32, ptr %15, align 4
  %75 = load i32, ptr %17, align 4
  %76 = load i32, ptr %18, align 4
  %77 = add i32 %75, %76
  %78 = icmp ult i32 %74, %77
  br i1 %78, label %79, label %106

79:                                               ; preds = %73
  %80 = load ptr, ptr %12, align 8
  %81 = load ptr, ptr %7, align 8
  %82 = load i32, ptr %10, align 4
  %83 = load i32, ptr @ett_linearforwardingtable_block, align 4
  %84 = load i32, ptr %15, align 4
  %85 = call ptr (ptr, ptr, i32, i32, i32, ptr, ptr, ...) @proto_tree_add_subtree_format(ptr noundef %80, ptr noundef %81, i32 noundef %82, i32 noundef 64, i32 noundef %83, ptr noundef null, ptr noundef @.str.2338, i32 noundef %84)
  store ptr %85, ptr %14, align 8
  store i32 0, ptr %16, align 4
  br label %86

86:                                               ; preds = %99, %79
  %87 = load i32, ptr %16, align 4
  %88 = icmp ult i32 %87, 64
  br i1 %88, label %89, label %102

89:                                               ; preds = %86
  %90 = load ptr, ptr %14, align 8
  %91 = load i32, ptr @hf_opa_LinearForwardingTable_Port, align 4
  %92 = load ptr, ptr %7, align 8
  %93 = load i32, ptr %10, align 4
  %94 = call ptr @proto_tree_add_item(ptr noundef %90, i32 noundef %91, ptr noundef %92, i32 noundef %93, i32 noundef 1, i32 noundef 0)
  store ptr %94, ptr %13, align 8
  %95 = load i32, ptr %10, align 4
  %96 = add i32 %95, 1
  store i32 %96, ptr %10, align 4
  %97 = load ptr, ptr %13, align 8
  %98 = load i32, ptr %16, align 4
  call void (ptr, ptr, ...) @proto_item_prepend_text(ptr noundef %97, ptr noundef @.str.2329, i32 noundef %98)
  br label %99

99:                                               ; preds = %89
  %100 = load i32, ptr %16, align 4
  %101 = add i32 %100, 1
  store i32 %101, ptr %16, align 4
  br label %86, !llvm.loop !21

102:                                              ; preds = %86
  br label %103

103:                                              ; preds = %102
  %104 = load i32, ptr %15, align 4
  %105 = add i32 %104, 1
  store i32 %105, ptr %15, align 4
  br label %73, !llvm.loop !22

106:                                              ; preds = %73
  %107 = load i32, ptr %10, align 4
  store i32 %107, ptr %5, align 4
  store i32 1, ptr %19, align 4
  br label %108

108:                                              ; preds = %106, %36
  call void @llvm.lifetime.end.p0(i64 4, ptr %18) #7
  call void @llvm.lifetime.end.p0(i64 4, ptr %17) #7
  call void @llvm.lifetime.end.p0(i64 4, ptr %16) #7
  call void @llvm.lifetime.end.p0(i64 4, ptr %15) #7
  call void @llvm.lifetime.end.p0(i64 8, ptr %14) #7
  call void @llvm.lifetime.end.p0(i64 8, ptr %13) #7
  call void @llvm.lifetime.end.p0(i64 8, ptr %12) #7
  call void @llvm.lifetime.end.p0(i64 8, ptr %11) #7
  call void @llvm.lifetime.end.p0(i64 4, ptr %10) #7
  %109 = load i32, ptr %5, align 4
  ret i32 %109
}