; Function Attrs: null_pointer_is_valid sspstrong uwtable
define internal fastcc i32 @parse_LinearForwardingTable(ptr noundef %0, ptr noundef %1, i32 %.0.val, ptr noundef readonly captures(none) %2) unnamed_addr #0 {
  %.not = icmp eq ptr %0, null
  br i1 %.not, label %.loopexit, label %4

4:                                                ; preds = %3
  %5 = getelementptr inbounds nuw i8, ptr %2, i64 3
  %6 = load i8, ptr %5, align 1
  switch i8 %6, label %7 [
    i8 1, label %.loopexit
    i8 18, label %.loopexit
  ]

7:                                                ; preds = %4
  %8 = getelementptr inbounds nuw i8, ptr %2, i64 1
  %9 = load i8, ptr %8, align 1
  %10 = icmp eq i8 %9, 3
  br i1 %10, label %11, label %14

11:                                               ; preds = %7
  %12 = add i32 %.0.val, -4
  %13 = tail call i32 @tvb_get_ntohl(ptr noundef %1, i32 noundef %12)
  br label %18

14:                                               ; preds = %7
  %15 = getelementptr inbounds nuw i8, ptr %2, i64 20
  %16 = load i32, ptr %15, align 4
  %17 = lshr i32 %16, 24
  br label %18

18:                                               ; preds = %14, %11
  %.033.in = phi i32 [ %13, %11 ], [ %16, %14 ]
  %.0 = phi i32 [ 1, %11 ], [ %17, %14 ]
  %.033 = and i32 %.033.in, 262143
  %19 = load i32, ptr @hf_opa_LinearForwardingTable, align 4
  %20 = shl nuw nsw i32 %.0, 6
  %21 = tail call ptr @proto_tree_add_item(ptr noundef nonnull %0, i32 noundef %19, ptr noundef %1, i32 noundef %.0.val, i32 noundef %20, i32 noundef 0)
  %22 = load i32, ptr @ett_linearforwardingtable, align 4
  %23 = tail call ptr @proto_item_add_subtree(ptr noundef %21, i32 noundef %22)
  %24 = add nuw nsw i32 %.033, %.0
  %.not5 = icmp eq i32 %.0, 0
  br i1 %.not5, label %.loopexit, label %.lr.ph

.lr.ph:                                           ; preds = %18, %32
  %.0354 = phi i32 [ %33, %32 ], [ %.033, %18 ]
  %.0373 = phi i32 [ %30, %32 ], [ %.0.val, %18 ]
  %25 = load i32, ptr @ett_linearforwardingtable_block, align 4
  %26 = tail call ptr (ptr, ptr, i32, i32, i32, ptr, ptr, ...) @proto_tree_add_subtree_format(ptr noundef %23, ptr noundef %1, i32 noundef %.0373, i32 noundef 64, i32 noundef %25, ptr noundef null, ptr noundef nonnull @.str.2338, i32 noundef %.0354)
  br label %27

27:                                               ; preds = %.lr.ph, %27
  %.0342 = phi i32 [ 0, %.lr.ph ], [ %31, %27 ]
  %.11 = phi i32 [ %.0373, %.lr.ph ], [ %30, %27 ]
  %28 = load i32, ptr @hf_opa_LinearForwardingTable_Port, align 4
  %29 = tail call ptr @proto_tree_add_item(ptr noundef %26, i32 noundef %28, ptr noundef %1, i32 noundef %.11, i32 noundef 1, i32 noundef 0)
  %30 = add i32 %.11, 1
  tail call void (ptr, ptr, ...) @proto_item_prepend_text(ptr noundef %29, ptr noundef nonnull @.str.2329, i32 noundef %.0342)
  %31 = add nuw nsw i32 %.0342, 1
  %exitcond.not = icmp eq i32 %31, 64
  br i1 %exitcond.not, label %32, label %27, !llvm.loop !30

32:                                               ; preds = %27
  %33 = add nuw nsw i32 %.0354, 1
  %34 = icmp samesign ult i32 %33, %24
  br i1 %34, label %.lr.ph, label %.loopexit, !llvm.loop !31

.loopexit:                                        ; preds = %32, %18, %3, %4, %4
  %.036 = phi i32 [ %.0.val, %4 ], [ %.0.val, %4 ], [ %.0.val, %3 ], [ %.0.val, %18 ], [ %30, %32 ]
  ret i32 %.036
}